target datalayout = "e-m:e-p270:32:32-p271:32:32-p272:64:64-i64:64-i128:128-f80:128-n8:16:32:64-S128"
target triple = "x86_64-pc-linux-gnu"

%struct._VAConfigAttrib = type { i32, i32 }
%struct.AVCodecContext = type { ptr, i32, i32, ptr, i32, i32, ptr, ptr, ptr, i64, i32, i32, ptr, i32, %struct.AVRational, %struct.AVRational, %struct.AVRational, i32, i32, i32, i32, i32, %struct.AVRational, i32, i32, i32, i32, i32, i32, i32, i32, i32, i32, i32, ptr, ptr, i32, float, float, float, float, float, float, float, float, float, i32, i32, i32, i32, i32, i32, i32, i32, i32, i32, i32, i32, ptr, ptr, ptr, i32, i32, i32, i32, i32, i32, i32, i32, i32, i32, %struct.AVChannelLayout, i32, i32, i32, i32, i32, i32, i32, i32, ptr, i32, i32, i32, float, float, i32, i32, i32, i32, i32, ptr, i64, i64, float, float, i32, i32, ptr, ptr, i32, i32, i32, i32, i32, ptr, ptr, ptr, ptr, i32, i32, [8 x i64], i32, i32, i32, i32, i32, i32, i32, ptr, ptr, i32, i32, i32, i32, i32, i32, i32, i32, i32, i32, ptr, ptr, i32, i32, ptr, ptr, ptr, ptr, i32, i32, i64, i32, i32, i64, ptr, i64, ptr, i32, ptr, i32 }
%struct.AVRational = type { i32, i32 }
%struct.AVChannelLayout = type { i32, i32, %union.anon.1, ptr }
%union.anon.1 = type { i64 }
%struct.VAAPIEncodeContext = type { %struct.FFHWBaseEncodeContext, ptr, i32, i32, i32, i32, i32, i32, ptr, ptr, i32, i32, i32, i32, i32, i32, [4 x %struct._VAConfigAttrib], i32, i32, i32, ptr, ptr, [4 x i32], [4 x ptr], [4 x i64], i32, %struct._VAEncMiscParameterRateControl, %struct._VAEncMiscParameterHRD, %struct._VAEncMiscParameterFrameRate, %struct._VAEncMiscParameterBufferMaxFrameSize, %struct._VAEncMiscParameterBufferQualityLevel, ptr, ptr, i32, i32, i32, i32, i32, i32, [20 x i32], [22 x i32], [21 x i32], [23 x i32], i32, i32, ptr, i32, i32 }
%struct.FFHWBaseEncodeContext = type { ptr, ptr, ptr, i32, i32, i32, i32, i32, i32, ptr, ptr, ptr, ptr, ptr, ptr, ptr, ptr, [2 x ptr], i32, i64, i64, i64, i64, i64, i64, i64, [112 x i64], i32, i32, i32, i32, i32, i32, i32, i32, i32, i32, i32, i32, i32, i32, i32, i32, ptr, i32, ptr, i32, ptr }
%struct._VAEncMiscParameterRateControl = type { i32, i32, i32, i32, i32, i32, %union.anon.2, i32, i32, i32, i32, [4 x i32] }
%union.anon.2 = type { %struct.anon }
%struct.anon = type { i32 }
%struct._VAEncMiscParameterHRD = type { i32, i32, [4 x i32] }
%struct._VAEncMiscParameterFrameRate = type { i32, %union.anon.3, [4 x i32] }
%union.anon.3 = type { %struct.anon.4 }
%struct.anon.4 = type { i32 }
%struct._VAEncMiscParameterBufferMaxFrameSize = type { i32, i32, [4 x i32] }
%struct._VAEncMiscParameterBufferQualityLevel = type { i32, [4 x i32] }
%struct.VAAPIEncodeAV1Context = type { %struct.VAAPIEncodeContext, %struct.AV1RawOBU, %struct.AV1RawOBU, [4 x %struct.AV1RawOBU], i32, ptr, %struct.CodedBitstreamFragment, %union._VAConfigAttribValEncAV1, %union._VAConfigAttribValEncAV1Ext1, %union._VAConfigAttribValEncAV1Ext2, [1024 x i8], i64, [1024 x i8], i64, i8, i8, i32, i32, i32, i32, i32, i32, [64 x i8], [64 x i8], i32, i32, i32, i32, i32, i32, i32, i32, i32, i32, i32, i32, i32, i32, i32, i32, i32 }
%struct.AV1RawOBU = type { %struct.AV1RawOBUHeader, i64, %union.anon.5 }
%struct.AV1RawOBUHeader = type { i8, i8, i8, i8, i8, i8, i8, i8 }
%union.anon.5 = type { %struct.AV1RawMetadata }
%struct.AV1RawMetadata = type { i64, %union.anon.6 }
%union.anon.6 = type { %struct.AV1RawMetadataITUTT35, [2800 x i8] }
%struct.AV1RawMetadataITUTT35 = type { i8, i8, ptr, ptr, i64 }
%struct.CodedBitstreamFragment = type { ptr, i64, i64, ptr, i32, i32, ptr }
%union._VAConfigAttribValEncAV1 = type { %struct.anon.7 }
%struct.anon.7 = type { i32 }
%union._VAConfigAttribValEncAV1Ext1 = type { %struct.anon.8 }
%struct.anon.8 = type { i32 }
%union._VAConfigAttribValEncAV1Ext2 = type { %struct.anon.9 }
%struct.anon.9 = type { i32 }

; Function Attrs: cold nounwind optsize uwtable
define internal i32 @vaapi_encode_av1_close(ptr noundef %0) #0 {
  %2 = alloca ptr, align 8
  %3 = alloca ptr, align 8
  store ptr %0, ptr %2, align 8, !tbaa !4
  call void @llvm.lifetime.start.p0(i64 8, ptr %3) #12
  %4 = load ptr, ptr %2, align 8, !tbaa !4
  %5 = getelementptr inbounds nuw %struct.AVCodecContext, ptr %4, i32 0, i32 6
  %6 = load ptr, ptr %5, align 8, !tbaa !9
  store ptr %6, ptr %3, align 8, !tbaa !31
  %7 = load ptr, ptr %3, align 8, !tbaa !31
  %8 = getelementptr inbounds nuw %struct.VAAPIEncodeAV1Context, ptr %7, i32 0, i32 6
  call void @ff_cbs_fragment_free(ptr noundef %8)
  %9 = load ptr, ptr %3, align 8, !tbaa !31
  %10 = getelementptr inbounds nuw %struct.VAAPIEncodeAV1Context, ptr %9, i32 0, i32 5
  call void @ff_cbs_close(ptr noundef %10)
  %11 = load ptr, ptr %2, align 8, !tbaa !4
  %12 = call i32 @ff_vaapi_encode_close(ptr noundef %11)
  call void @llvm.lifetime.end.p0(i64 8, ptr %3) #12
  ret i32 %12
}